; ModuleID = 'bench/linux/original/nf_conntrack_proto_generic.ll'
source_filename = "bench/linux/original/nf_conntrack_proto_generic.ll"
target datalayout = "e-m:e-p270:32:32-p271:32:32-p272:64:64-i64:64-i128:128-f80:128-n8:16:32:64-S128"
target triple = "x86_64-unknown-linux-gnu"

%struct.nf_conntrack_l4proto = type { i8, i8, i16, ptr, ptr, ptr, ptr, ptr, ptr, ptr, %struct.anon }
%struct.anon = type { ptr, ptr, i16, i16, ptr }

@nf_conntrack_l4proto_generic = dso_local local_unnamed_addr constant %struct.nf_conntrack_l4proto { i8 -1, i8 0, i16 0, ptr null, ptr null, ptr null, ptr null, ptr null, ptr null, ptr null, %struct.anon zeroinitializer }, align 8

; Function Attrs: fn_ret_thunk_extern mustprogress nofree norecurse nosync nounwind null_pointer_is_valid willreturn memory(argmem: write)
define dso_local void @nf_conntrack_generic_init_net(ptr nocapture noundef writeonly %0) local_unnamed_addr #0 align 16 {
  %2 = getelementptr inbounds i8, ptr %0, i64 2456
  store i32 600000, ptr %2, align 4
  ret void
}


!llvm.module.flags = !{!0, !1, !2, !3, !4}

!0 = !{i32 1, !"wchar_size", i32 2}
!1 = !{i32 8, !"cf-protection-branch", i32 1}
!2 = !{i32 4, !"function_return_thunk_extern", i32 1}
!3 = !{i32 4, !"indirect_branch_cs_prefix", i32 1}
!4 = !{i32 4, !"SkipRaxSetup", i32 1}
